; Function Attrs: mustprogress nofree norecurse nosync nounwind willreturn memory(argmem: write) uwtable
define dso_local void @_ZN3igl3xml15XMLSerializableC2ERKS1_(ptr noundef nonnull writeonly align 8 captures(none) dereferenceable(40) initializes((0, 9), (16, 40)) %0, ptr noundef nonnull readnone align 8 captures(none) dereferenceable(40) %1) unnamed_addr #3 align 2 personality ptr @__gxx_personality_v0 {
_ZNSt6vectorIPN3igl3xml19XMLSerializableBaseESaIS3_EE5clearEv.exit:
  store ptr getelementptr inbounds nuw inrange(-16, 88) (i8, ptr @_ZTVN3igl3xml15XMLSerializableE, i64 16), ptr %0, align 8, !tbaa !4
  %2 = getelementptr inbounds nuw i8, ptr %0, i64 16
  tail call void @llvm.memset.p0.i64(ptr noundef nonnull align 8 dereferenceable(24) %2, i8 0, i64 24, i1 false)
  %3 = getelementptr inbounds nuw i8, ptr %0, i64 8
  store i8 0, ptr %3, align 8, !tbaa !7
  ret void
}